; Function Attrs: mustprogress uwtable
define void @_ZNK8QuantLib28AndreasenHugeLocalVolAdapter8calendarEv(ptr dead_on_unwind noalias writable sret(%"class.QuantLib::Calendar") align 8 %agg.result, ptr nocapture noundef nonnull readonly align 8 dereferenceable(88) %this) unnamed_addr #6 align 2 {
entry:
  %localVol_ = getelementptr inbounds nuw i8, ptr %this, i64 72
  %0 = load ptr, ptr %localVol_, align 8, !tbaa !51
  %cmp.not.i = icmp eq ptr %0, null
  br i1 %cmp.not.i, label %cond.false.i, label %_ZNK5boost10shared_ptrIN8QuantLib30AndreasenHugeVolatilityInterplEEptEv.exit, !prof !53

cond.false.i:                                     ; preds = %entry
  tail call void @_ZN5boost16assertion_failedEPKcS1_S1_l(ptr noundef nonnull @.str.5, ptr noundef nonnull @__PRETTY_FUNCTION__._ZNK5boost10shared_ptrIN8QuantLib30AndreasenHugeVolatilityInterplEEptEv, ptr noundef nonnull @.str.6, i64 noundef 784)
  %.pre.i = load ptr, ptr %localVol_, align 8, !tbaa !51
  br label %_ZNK5boost10shared_ptrIN8QuantLib30AndreasenHugeVolatilityInterplEEptEv.exit

_ZNK5boost10shared_ptrIN8QuantLib30AndreasenHugeVolatilityInterplEEptEv.exit: ; preds = %entry, %cond.false.i
  %1 = phi ptr [ %0, %entry ], [ %.pre.i, %cond.false.i ]
  %call2 = tail call noundef nonnull align 8 dereferenceable(16) ptr @_ZNK8QuantLib30AndreasenHugeVolatilityInterpl12riskFreeRateEv(ptr noundef nonnull align 8 dereferenceable(488) %1)
  %call3 = tail call noundef nonnull align 8 dereferenceable(16) ptr @_ZNK8QuantLib6HandleINS_18YieldTermStructureEEptEv(ptr noundef nonnull align 8 dereferenceable(16) %call2)
  %2 = load ptr, ptr %call3, align 8, !tbaa !55
  %cmp.not.i1 = icmp eq ptr %2, null
  br i1 %cmp.not.i1, label %cond.false.i2, label %_ZNK5boost10shared_ptrIN8QuantLib18YieldTermStructureEEptEv.exit, !prof !53

cond.false.i2:                                    ; preds = %_ZNK5boost10shared_ptrIN8QuantLib30AndreasenHugeVolatilityInterplEEptEv.exit
  tail call void @_ZN5boost16assertion_failedEPKcS1_S1_l(ptr noundef nonnull @.str.5, ptr noundef nonnull @__PRETTY_FUNCTION__._ZNK5boost10shared_ptrIN8QuantLib18YieldTermStructureEEptEv, ptr noundef nonnull @.str.6, i64 noundef 784)
  %.pre.i3 = load ptr, ptr %call3, align 8, !tbaa !55
  br label %_ZNK5boost10shared_ptrIN8QuantLib18YieldTermStructureEEptEv.exit

_ZNK5boost10shared_ptrIN8QuantLib18YieldTermStructureEEptEv.exit: ; preds = %_ZNK5boost10shared_ptrIN8QuantLib30AndreasenHugeVolatilityInterplEEptEv.exit, %cond.false.i2
  %3 = phi ptr [ %2, %_ZNK5boost10shared_ptrIN8QuantLib30AndreasenHugeVolatilityInterplEEptEv.exit ], [ %.pre.i3, %cond.false.i2 ]
  %vtable = load ptr, ptr %3, align 8, !tbaa !49
  %vfn = getelementptr inbounds i8, ptr %vtable, i64 48
  %4 = load ptr, ptr %vfn, align 8
  tail call void %4(ptr dead_on_unwind writable sret(%"class.QuantLib::Calendar") align 8 %agg.result, ptr noundef nonnull align 8 dereferenceable(64) %3)
  ret void
}